; ModuleID = '6/140.c'
source_filename = "6/140.c"
target datalayout = "e-m:e-p270:32:32-p271:32:32-p272:64:64-i64:64-f80:128-n8:16:32:64-S128"
target triple = "x86_64-pc-linux-gnu"

@.str = private unnamed_addr constant [6 x i8] c"%d %d\00", align 1
@.str.1 = private unnamed_addr constant [3 x i8] c"%d\00", align 1
@.str.2 = private unnamed_addr constant [4 x i8] c"%d\0A\00", align 1

; Function Attrs: noinline nounwind uwtable
define dso_local void @f() #0 {
  %1 = alloca i32, align 4
  %2 = alloca i32, align 4
  %3 = alloca i32, align 4
  %4 = alloca i32, align 4
  %5 = alloca i32, align 4
  %6 = alloca [100 x i32]*, align 8
  store i32 0, i32* %1, align 4
  %7 = call i32 (i8*, ...) @__isoc99_scanf(i8* getelementptr inbounds ([6 x i8], [6 x i8]* @.str, i64 0, i64 0), i32* %4, i32* %5)
  %8 = load i32, i32* %4, align 4
  %9 = mul nsw i32 %8, 100
  %10 = sext i32 %9 to i64
  %11 = mul i64 %10, 4
  %12 = call noalias i8* @malloc(i64 %11) #3
  %13 = bitcast i8* %12 to [100 x i32]*
  store [100 x i32]* %13, [100 x i32]** %6, align 8
  store i32 0, i32* %2, align 4
  br label %14

14:                                               ; preds = %37, %0
  %15 = load i32, i32* %2, align 4
  %16 = load i32, i32* %4, align 4
  %17 = icmp slt i32 %15, %16
  br i1 %17, label %18, label %40

18:                                               ; preds = %14
  store i32 0, i32* %3, align 4
  br label %19

19:                                               ; preds = %33, %18
  %20 = load i32, i32* %3, align 4
  %21 = load i32, i32* %5, align 4
  %22 = icmp slt i32 %20, %21
  br i1 %22, label %23, label %36

23:                                               ; preds = %19
  %24 = load [100 x i32]*, [100 x i32]** %6, align 8
  %25 = load i32, i32* %2, align 4
  %26 = sext i32 %25 to i64
  %27 = getelementptr inbounds [100 x i32], [100 x i32]* %24, i64 %26
  %28 = getelementptr inbounds [100 x i32], [100 x i32]* %27, i64 0, i64 0
  %29 = load i32, i32* %3, align 4
  %30 = sext i32 %29 to i64
  %31 = getelementptr inbounds i32, i32* %28, i64 %30
  %32 = call i32 (i8*, ...) @__isoc99_scanf(i8* getelementptr inbounds ([3 x i8], [3 x i8]* @.str.1, i64 0, i64 0), i32* %31)
  br label %33

33:                                               ; preds = %23
  %34 = load i32, i32* %3, align 4
  %35 = add nsw i32 %34, 1
  store i32 %35, i32* %3, align 4
  br label %19

36:                                               ; preds = %19
  br label %37

37:                                               ; preds = %36
  %38 = load i32, i32* %2, align 4
  %39 = add nsw i32 %38, 1
  store i32 %39, i32* %2, align 4
  br label %14

40:                                               ; preds = %14
  store i32 0, i32* %3, align 4
  br label %41

41:                                               ; preds = %65, %40
  %42 = load i32, i32* %3, align 4
  %43 = load i32, i32* %5, align 4
  %44 = icmp slt i32 %42, %43
  br i1 %44, label %45, label %68

45:                                               ; preds = %41
  %46 = load i32, i32* %1, align 4
  %47 = load [100 x i32]*, [100 x i32]** %6, align 8
  %48 = getelementptr inbounds [100 x i32], [100 x i32]* %47, i64 0, i64 0
  %49 = load i32, i32* %3, align 4
  %50 = sext i32 %49 to i64
  %51 = getelementptr inbounds i32, i32* %48, i64 %50
  %52 = load i32, i32* %51, align 4
  %53 = add nsw i32 %46, %52
  %54 = load [100 x i32]*, [100 x i32]** %6, align 8
  %55 = load i32, i32* %4, align 4
  %56 = sext i32 %55 to i64
  %57 = getelementptr inbounds [100 x i32], [100 x i32]* %54, i64 %56
  %58 = getelementptr inbounds [100 x i32], [100 x i32]* %57, i64 -1
  %59 = getelementptr inbounds [100 x i32], [100 x i32]* %58, i64 0, i64 0
  %60 = load i32, i32* %3, align 4
  %61 = sext i32 %60 to i64
  %62 = getelementptr inbounds i32, i32* %59, i64 %61
  %63 = load i32, i32* %62, align 4
  %64 = add nsw i32 %53, %63
  store i32 %64, i32* %1, align 4
  br label %65

65:                                               ; preds = %45
  %66 = load i32, i32* %3, align 4
  %67 = add nsw i32 %66, 1
  store i32 %67, i32* %3, align 4
  br label %41

68:                                               ; preds = %41
  store i32 1, i32* %2, align 4
  br label %69

69:                                               ; preds = %94, %68
  %70 = load i32, i32* %2, align 4
  %71 = load i32, i32* %4, align 4
  %72 = sub nsw i32 %71, 1
  %73 = icmp slt i32 %70, %72
  br i1 %73, label %74, label %97

74:                                               ; preds = %69
  %75 = load i32, i32* %1, align 4
  %76 = load [100 x i32]*, [100 x i32]** %6, align 8
  %77 = load i32, i32* %2, align 4
  %78 = sext i32 %77 to i64
  %79 = getelementptr inbounds [100 x i32], [100 x i32]* %76, i64 %78
  %80 = getelementptr inbounds [100 x i32], [100 x i32]* %79, i64 0, i64 0
  %81 = load i32, i32* %80, align 4
  %82 = add nsw i32 %75, %81
  %83 = load [100 x i32]*, [100 x i32]** %6, align 8
  %84 = load i32, i32* %2, align 4
  %85 = sext i32 %84 to i64
  %86 = getelementptr inbounds [100 x i32], [100 x i32]* %83, i64 %85
  %87 = getelementptr inbounds [100 x i32], [100 x i32]* %86, i64 0, i64 0
  %88 = load i32, i32* %5, align 4
  %89 = sext i32 %88 to i64
  %90 = getelementptr inbounds i32, i32* %87, i64 %89
  %91 = getelementptr inbounds i32, i32* %90, i64 -1
  %92 = load i32, i32* %91, align 4
  %93 = add nsw i32 %82, %92
  store i32 %93, i32* %1, align 4
  br label %94

94:                                               ; preds = %74
  %95 = load i32, i32* %2, align 4
  %96 = add nsw i32 %95, 1
  store i32 %96, i32* %2, align 4
  br label %69

97:                                               ; preds = %69
  %98 = load i32, i32* %1, align 4
  %99 = call i32 (i8*, ...) @printf(i8* getelementptr inbounds ([4 x i8], [4 x i8]* @.str.2, i64 0, i64 0), i32 %98)
  ret void
}

declare dso_local i32 @__isoc99_scanf(i8*, ...) #1

; Function Attrs: nounwind
declare dso_local noalias i8* @malloc(i64) #2

declare dso_local i32 @printf(i8*, ...) #1

; Function Attrs: noinline nounwind uwtable
define dso_local void @main() #0 {
  %1 = alloca i32, align 4
  %2 = alloca i32, align 4
  %3 = call i32 (i8*, ...) @__isoc99_scanf(i8* getelementptr inbounds ([3 x i8], [3 x i8]* @.str.1, i64 0, i64 0), i32* %2)
  store i32 0, i32* %1, align 4
  br label %4

4:                                                ; preds = %9, %0
  %5 = load i32, i32* %1, align 4
  %6 = load i32, i32* %2, align 4
  %7 = icmp slt i32 %5, %6
  br i1 %7, label %8, label %12

8:                                                ; preds = %4
  call void @f()
  br label %9

9:                                                ; preds = %8
  %10 = load i32, i32* %1, align 4
  %11 = add nsw i32 %10, 1
  store i32 %11, i32* %1, align 4
  br label %4

12:                                               ; preds = %4
  ret void
}


!llvm.module.flags = !{!0}
!llvm.ident = !{!1}

!0 = !{i32 1, !"wchar_size", i32 4}
!1 = !{!"clang version 10.0.0-4ubuntu1 "}
